target datalayout = "e-m:e-p270:32:32-p271:32:32-p272:64:64-i64:64-i128:128-f80:128-n8:16:32:64-S128"
target triple = "x86_64-pc-linux-gnu"

%struct.sp_int = type { i16, i16, [129 x i64] }
%struct.ecc_key = type { i32, i32, i32, i32, ptr, ptr, %struct.ecc_point, [1 x %struct.sp_int], ptr }
%struct.ecc_point = type { [1 x %struct.sp_int], [1 x %struct.sp_int], [1 x %struct.sp_int], i8 }

@devId = internal global i32 -2, align 4
@__const.ecc_exp_imp_test.qx = private unnamed_addr constant [65 x i8] c"7a4e287890a1a47ad3457e52f2f76a83ce46cbc947616d0cbaa82323818a793d\00", align 16
@__const.ecc_exp_imp_test.qy = private unnamed_addr constant [65 x i8] c"eec4084f5b29ebf29c44cce3b3059610922f8b30ea6e8811742ac7238fe87308\00", align 16
@__const.ecc_exp_imp_test.d = private unnamed_addr constant [65 x i8] c"8c14b793cb19137e323a6d2e2a870bca2e7a493ec1153b3a95feb8a4873f8d08\00", align 16

; Function Attrs: nounwind uwtable
define internal i32 @ecc_exp_imp_test(ptr noundef %0) #0 {
  %2 = alloca ptr, align 8
  %3 = alloca i32, align 4
  %4 = alloca i32, align 4
  %5 = alloca [1 x %struct.ecc_key], align 16
  %6 = alloca [32 x i8], align 16
  %7 = alloca i32, align 4
  %8 = alloca [130 x i8], align 16
  %9 = alloca i32, align 4
  %10 = alloca i32, align 4
  %11 = alloca i32, align 4
  %12 = alloca [65 x i8], align 16
  %13 = alloca [65 x i8], align 16
  %14 = alloca [65 x i8], align 16
  store ptr %0, ptr %2, align 8, !tbaa !175
  call void @llvm.lifetime.start.p0(i64 4, ptr %3) #10
  call void @llvm.lifetime.start.p0(i64 4, ptr %4) #10
  call void @llvm.lifetime.start.p0(i64 4208, ptr %5) #10
  call void @llvm.lifetime.start.p0(i64 32, ptr %6) #10
  call void @llvm.lifetime.start.p0(i64 4, ptr %7) #10
  call void @llvm.lifetime.start.p0(i64 130, ptr %8) #10
  call void @llvm.lifetime.start.p0(i64 4, ptr %9) #10
  call void @llvm.lifetime.start.p0(i64 4, ptr %10) #10
  call void @llvm.lifetime.start.p0(i64 4, ptr %11) #10
  call void @llvm.lifetime.start.p0(i64 65, ptr %12) #10
  call void @llvm.memcpy.p0.p0.i64(ptr align 16 %12, ptr align 16 @__const.ecc_exp_imp_test.qx, i64 65, i1 false)
  call void @llvm.lifetime.start.p0(i64 65, ptr %13) #10
  call void @llvm.memcpy.p0.p0.i64(ptr align 16 %13, ptr align 16 @__const.ecc_exp_imp_test.qy, i64 65, i1 false)
  call void @llvm.lifetime.start.p0(i64 65, ptr %14) #10
  call void @llvm.memcpy.p0.p0.i64(ptr align 16 %14, ptr align 16 @__const.ecc_exp_imp_test.d, i64 65, i1 false)
  %15 = getelementptr inbounds [1 x %struct.ecc_key], ptr %5, i64 0, i64 0
  %16 = load i32, ptr @devId, align 4, !tbaa !14
  %17 = call i32 @wc_ecc_init_ex(ptr noundef %15, ptr noundef null, i32 noundef %16)
  store i32 32, ptr %7, align 4, !tbaa !14
  %18 = load ptr, ptr %2, align 8, !tbaa !175
  %19 = getelementptr inbounds [32 x i8], ptr %6, i64 0, i64 0
  %20 = call i32 @wc_ecc_export_private_only(ptr noundef %18, ptr noundef %19, ptr noundef %7)
  store i32 %20, ptr %3, align 4, !tbaa !14
  %21 = load i32, ptr %3, align 4, !tbaa !14
  %22 = icmp ne i32 %21, 0
  br i1 %22, label %23, label %38

23:                                               ; preds = %1
  br label %24

24:                                               ; preds = %23
  %25 = load i32, ptr %3, align 4, !tbaa !14
  %26 = sub nsw i32 0, %25
  %27 = zext i32 %26 to i64
  %28 = and i64 %27, 2047
  %29 = trunc i64 %28 to i32
  %30 = sext i32 %29 to i64
  %31 = mul nsw i64 %30, 100000
  %32 = add nsw i64 31714, %31
  %33 = add nsw i64 %32, 536870912
  %34 = sub nsw i64 0, %33
  %35 = trunc i64 %34 to i32
  store i32 %35, ptr %3, align 4, !tbaa !14
  br label %263

36:                                               ; No predecessors!
  br label %37

37:                                               ; preds = %36
  br label %38

38:                                               ; preds = %37, %1
  store i32 130, ptr %9, align 4, !tbaa !14
  %39 = load ptr, ptr %2, align 8, !tbaa !175
  %40 = getelementptr inbounds nuw %struct.ecc_key, ptr %39, i32 0, i32 1
  %41 = load i32, ptr %40, align 4, !tbaa !217
  %42 = load ptr, ptr %2, align 8, !tbaa !175
  %43 = getelementptr inbounds nuw %struct.ecc_key, ptr %42, i32 0, i32 6
  %44 = getelementptr inbounds [130 x i8], ptr %8, i64 0, i64 0
  %45 = call i32 @wc_ecc_export_point_der(i32 noundef %41, ptr noundef %43, ptr noundef %44, ptr noundef %9)
  store i32 %45, ptr %3, align 4, !tbaa !14
  %46 = load i32, ptr %3, align 4, !tbaa !14
  %47 = icmp ne i32 %46, 0
  br i1 %47, label %48, label %63

48:                                               ; preds = %38
  br label %49

49:                                               ; preds = %48
  %50 = load i32, ptr %3, align 4, !tbaa !14
  %51 = sub nsw i32 0, %50
  %52 = zext i32 %51 to i64
  %53 = and i64 %52, 2047
  %54 = trunc i64 %53 to i32
  %55 = sext i32 %54 to i64
  %56 = mul nsw i64 %55, 100000
  %57 = add nsw i64 31718, %56
  %58 = add nsw i64 %57, 536870912
  %59 = sub nsw i64 0, %58
  %60 = trunc i64 %59 to i32
  store i32 %60, ptr %3, align 4, !tbaa !14
  br label %263

61:                                               ; No predecessors!
  br label %62

62:                                               ; preds = %61
  br label %63

63:                                               ; preds = %62, %38
  %64 = getelementptr inbounds [32 x i8], ptr %6, i64 0, i64 0
  %65 = load i32, ptr %7, align 4, !tbaa !14
  %66 = getelementptr inbounds [130 x i8], ptr %8, i64 0, i64 0
  %67 = load i32, ptr %9, align 4, !tbaa !14
  %68 = getelementptr inbounds [1 x %struct.ecc_key], ptr %5, i64 0, i64 0
  %69 = call i32 @wc_ecc_import_private_key(ptr noundef %64, i32 noundef %65, ptr noundef %66, i32 noundef %67, ptr noundef %68)
  store i32 %69, ptr %3, align 4, !tbaa !14
  %70 = load i32, ptr %3, align 4, !tbaa !14
  %71 = icmp ne i32 %70, 0
  br i1 %71, label %72, label %87

72:                                               ; preds = %63
  br label %73

73:                                               ; preds = %72
  %74 = load i32, ptr %3, align 4, !tbaa !14
  %75 = sub nsw i32 0, %74
  %76 = zext i32 %75 to i64
  %77 = and i64 %76, 2047
  %78 = trunc i64 %77 to i32
  %79 = sext i32 %78 to i64
  %80 = mul nsw i64 %79, 100000
  %81 = add nsw i64 31722, %80
  %82 = add nsw i64 %81, 536870912
  %83 = sub nsw i64 0, %82
  %84 = trunc i64 %83 to i32
  store i32 %84, ptr %3, align 4, !tbaa !14
  br label %263

85:                                               ; No predecessors!
  br label %86

86:                                               ; preds = %85
  br label %87

87:                                               ; preds = %86, %63
  %88 = getelementptr inbounds [1 x %struct.ecc_key], ptr %5, i64 0, i64 0
  %89 = call i32 @wc_ecc_free(ptr noundef %88)
  %90 = getelementptr inbounds [1 x %struct.ecc_key], ptr %5, i64 0, i64 0
  %91 = load i32, ptr @devId, align 4, !tbaa !14
  %92 = call i32 @wc_ecc_init_ex(ptr noundef %90, ptr noundef null, i32 noundef %91)
  %93 = getelementptr inbounds [1 x %struct.ecc_key], ptr %5, i64 0, i64 0
  %94 = getelementptr inbounds [65 x i8], ptr %12, i64 0, i64 0
  %95 = getelementptr inbounds [65 x i8], ptr %13, i64 0, i64 0
  %96 = getelementptr inbounds [65 x i8], ptr %14, i64 0, i64 0
  %97 = call i32 @wc_ecc_import_raw_ex(ptr noundef %93, ptr noundef %94, ptr noundef %95, ptr noundef %96, i32 noundef 7)
  store i32 %97, ptr %3, align 4, !tbaa !14
  %98 = load i32, ptr %3, align 4, !tbaa !14
  %99 = icmp ne i32 %98, 0
  br i1 %99, label %100, label %115

100:                                              ; preds = %87
  br label %101

101:                                              ; preds = %100
  %102 = load i32, ptr %3, align 4, !tbaa !14
  %103 = sub nsw i32 0, %102
  %104 = zext i32 %103 to i64
  %105 = and i64 %104, 2047
  %106 = trunc i64 %105 to i32
  %107 = sext i32 %106 to i64
  %108 = mul nsw i64 %107, 100000
  %109 = add nsw i64 31729, %108
  %110 = add nsw i64 %109, 536870912
  %111 = sub nsw i64 0, %110
  %112 = trunc i64 %111 to i32
  store i32 %112, ptr %3, align 4, !tbaa !14
  br label %263

113:                                              ; No predecessors!
  br label %114

114:                                              ; preds = %113
  br label %115

115:                                              ; preds = %114, %87
  %116 = getelementptr inbounds [1 x %struct.ecc_key], ptr %5, i64 0, i64 0
  %117 = call i32 @wc_ecc_free(ptr noundef %116)
  %118 = getelementptr inbounds [1 x %struct.ecc_key], ptr %5, i64 0, i64 0
  %119 = load i32, ptr @devId, align 4, !tbaa !14
  %120 = call i32 @wc_ecc_init_ex(ptr noundef %118, ptr noundef null, i32 noundef %119)
  %121 = load ptr, ptr %2, align 8, !tbaa !175
  %122 = getelementptr inbounds nuw %struct.ecc_key, ptr %121, i32 0, i32 1
  %123 = load i32, ptr %122, align 4, !tbaa !217
  %124 = call i32 @wc_ecc_get_curve_id(i32 noundef %123)
  store i32 %124, ptr %4, align 4, !tbaa !14
  %125 = load i32, ptr %4, align 4, !tbaa !14
  %126 = icmp slt i32 %125, 0
  br i1 %126, label %127, label %139

127:                                              ; preds = %115
  %128 = load i32, ptr %4, align 4, !tbaa !14
  %129 = sub nsw i32 0, %128
  %130 = zext i32 %129 to i64
  %131 = and i64 %130, 2047
  %132 = trunc i64 %131 to i32
  %133 = sext i32 %132 to i64
  %134 = mul nsw i64 %133, 100000
  %135 = add nsw i64 31736, %134
  %136 = add nsw i64 %135, 536870912
  %137 = sub nsw i64 0, %136
  %138 = trunc i64 %137 to i32
  store i32 %138, ptr %3, align 4, !tbaa !14
  br label %263

139:                                              ; preds = %115
  %140 = getelementptr inbounds [32 x i8], ptr %6, i64 0, i64 0
  %141 = load i32, ptr %7, align 4, !tbaa !14
  %142 = getelementptr inbounds [1 x %struct.ecc_key], ptr %5, i64 0, i64 0
  %143 = load i32, ptr %4, align 4, !tbaa !14
  %144 = call i32 @wc_ecc_import_private_key_ex(ptr noundef %140, i32 noundef %141, ptr noundef null, i32 noundef 0, ptr noundef %142, i32 noundef %143)
  store i32 %144, ptr %3, align 4, !tbaa !14
  %145 = load i32, ptr %3, align 4, !tbaa !14
  %146 = icmp ne i32 %145, 0
  br i1 %146, label %147, label %162

147:                                              ; preds = %139
  br label %148

148:                                              ; preds = %147
  %149 = load i32, ptr %3, align 4, !tbaa !14
  %150 = sub nsw i32 0, %149
  %151 = zext i32 %150 to i64
  %152 = and i64 %151, 2047
  %153 = trunc i64 %152 to i32
  %154 = sext i32 %153 to i64
  %155 = mul nsw i64 %154, 100000
  %156 = add nsw i64 31744, %155
  %157 = add nsw i64 %156, 536870912
  %158 = sub nsw i64 0, %157
  %159 = trunc i64 %158 to i32
  store i32 %159, ptr %3, align 4, !tbaa !14
  br label %263

160:                                              ; No predecessors!
  br label %161

161:                                              ; preds = %160
  br label %162

162:                                              ; preds = %161, %139
  %163 = getelementptr inbounds [1 x %struct.ecc_key], ptr %5, i64 0, i64 0
  %164 = call i32 @wc_ecc_free(ptr noundef %163)
  %165 = getelementptr inbounds [1 x %struct.ecc_key], ptr %5, i64 0, i64 0
  %166 = load i32, ptr @devId, align 4, !tbaa !14
  %167 = call i32 @wc_ecc_init_ex(ptr noundef %165, ptr noundef null, i32 noundef %166)
  store i32 32, ptr %11, align 4, !tbaa !14
  store i32 32, ptr %10, align 4, !tbaa !14
  %168 = load ptr, ptr %2, align 8, !tbaa !175
  %169 = getelementptr inbounds [130 x i8], ptr %8, i64 0, i64 0
  %170 = getelementptr inbounds [130 x i8], ptr %8, i64 0, i64 32
  %171 = call i32 @wc_ecc_export_public_raw(ptr noundef %168, ptr noundef %169, ptr noundef %10, ptr noundef %170, ptr noundef %11)
  store i32 %171, ptr %3, align 4, !tbaa !14
  %172 = load i32, ptr %3, align 4, !tbaa !14
  %173 = icmp ne i32 %172, 0
  br i1 %173, label %174, label %189

174:                                              ; preds = %162
  br label %175

175:                                              ; preds = %174
  %176 = load i32, ptr %3, align 4, !tbaa !14
  %177 = sub nsw i32 0, %176
  %178 = zext i32 %177 to i64
  %179 = and i64 %178, 2047
  %180 = trunc i64 %179 to i32
  %181 = sext i32 %180 to i64
  %182 = mul nsw i64 %181, 100000
  %183 = add nsw i64 31753, %182
  %184 = add nsw i64 %183, 536870912
  %185 = sub nsw i64 0, %184
  %186 = trunc i64 %185 to i32
  store i32 %186, ptr %3, align 4, !tbaa !14
  br label %263

187:                                              ; No predecessors!
  br label %188

188:                                              ; preds = %187
  br label %189

189:                                              ; preds = %188, %162
  %190 = getelementptr inbounds [1 x %struct.ecc_key], ptr %5, i64 0, i64 0
  %191 = getelementptr inbounds [130 x i8], ptr %8, i64 0, i64 0
  %192 = getelementptr inbounds [130 x i8], ptr %8, i64 0, i64 32
  %193 = call i32 @wc_ecc_import_unsigned(ptr noundef %190, ptr noundef %191, ptr noundef %192, ptr noundef null, i32 noundef 7)
  store i32 %193, ptr %3, align 4, !tbaa !14
  %194 = load i32, ptr %3, align 4, !tbaa !14
  %195 = icmp ne i32 %194, 0
  br i1 %195, label %196, label %211

196:                                              ; preds = %189
  br label %197

197:                                              ; preds = %196
  %198 = load i32, ptr %3, align 4, !tbaa !14
  %199 = sub nsw i32 0, %198
  %200 = zext i32 %199 to i64
  %201 = and i64 %200, 2047
  %202 = trunc i64 %201 to i32
  %203 = sext i32 %202 to i64
  %204 = mul nsw i64 %203, 100000
  %205 = add nsw i64 31759, %204
  %206 = add nsw i64 %205, 536870912
  %207 = sub nsw i64 0, %206
  %208 = trunc i64 %207 to i32
  store i32 %208, ptr %3, align 4, !tbaa !14
  br label %263

209:                                              ; No predecessors!
  br label %210

210:                                              ; preds = %209
  br label %211

211:                                              ; preds = %210, %189
  %212 = getelementptr inbounds [1 x %struct.ecc_key], ptr %5, i64 0, i64 0
  %213 = call i32 @wc_ecc_free(ptr noundef %212)
  %214 = getelementptr inbounds [1 x %struct.ecc_key], ptr %5, i64 0, i64 0
  %215 = load i32, ptr @devId, align 4, !tbaa !14
  %216 = call i32 @wc_ecc_init_ex(ptr noundef %214, ptr noundef null, i32 noundef %215)
  store i32 32, ptr %7, align 4, !tbaa !14
  store i32 32, ptr %11, align 4, !tbaa !14
  store i32 32, ptr %10, align 4, !tbaa !14
  %217 = load ptr, ptr %2, align 8, !tbaa !175
  %218 = getelementptr inbounds [130 x i8], ptr %8, i64 0, i64 0
  %219 = getelementptr inbounds [130 x i8], ptr %8, i64 0, i64 32
  %220 = getelementptr inbounds [32 x i8], ptr %6, i64 0, i64 0
  %221 = call i32 @wc_ecc_export_private_raw(ptr noundef %217, ptr noundef %218, ptr noundef %10, ptr noundef %219, ptr noundef %11, ptr noundef %220, ptr noundef %7)
  store i32 %221, ptr %3, align 4, !tbaa !14
  %222 = load i32, ptr %3, align 4, !tbaa !14
  %223 = icmp ne i32 %222, 0
  br i1 %223, label %224, label %239

224:                                              ; preds = %211
  br label %225

225:                                              ; preds = %224
  %226 = load i32, ptr %3, align 4, !tbaa !14
  %227 = sub nsw i32 0, %226
  %228 = zext i32 %227 to i64
  %229 = and i64 %228, 2047
  %230 = trunc i64 %229 to i32
  %231 = sext i32 %230 to i64
  %232 = mul nsw i64 %231, 100000
  %233 = add nsw i64 31770, %232
  %234 = add nsw i64 %233, 536870912
  %235 = sub nsw i64 0, %234
  %236 = trunc i64 %235 to i32
  store i32 %236, ptr %3, align 4, !tbaa !14
  br label %263

237:                                              ; No predecessors!
  br label %238

238:                                              ; preds = %237
  br label %239

239:                                              ; preds = %238, %211
  %240 = getelementptr inbounds [1 x %struct.ecc_key], ptr %5, i64 0, i64 0
  %241 = getelementptr inbounds [130 x i8], ptr %8, i64 0, i64 0
  %242 = getelementptr inbounds [130 x i8], ptr %8, i64 0, i64 32
  %243 = getelementptr inbounds [32 x i8], ptr %6, i64 0, i64 0
  %244 = call i32 @wc_ecc_import_unsigned(ptr noundef %240, ptr noundef %241, ptr noundef %242, ptr noundef %243, i32 noundef 7)
  store i32 %244, ptr %3, align 4, !tbaa !14
  %245 = load i32, ptr %3, align 4, !tbaa !14
  %246 = icmp ne i32 %245, 0
  br i1 %246, label %247, label %262

247:                                              ; preds = %239
  br label %248

248:                                              ; preds = %247
  %249 = load i32, ptr %3, align 4, !tbaa !14
  %250 = sub nsw i32 0, %249
  %251 = zext i32 %250 to i64
  %252 = and i64 %251, 2047
  %253 = trunc i64 %252 to i32
  %254 = sext i32 %253 to i64
  %255 = mul nsw i64 %254, 100000
  %256 = add nsw i64 31776, %255
  %257 = add nsw i64 %256, 536870912
  %258 = sub nsw i64 0, %257
  %259 = trunc i64 %258 to i32
  store i32 %259, ptr %3, align 4, !tbaa !14
  br label %263

260:                                              ; No predecessors!
  br label %261

261:                                              ; preds = %260
  br label %262

262:                                              ; preds = %261, %239
  br label %263

263:                                              ; preds = %262, %248, %225, %197, %175, %148, %127, %101, %73, %49, %24
  %264 = getelementptr inbounds [1 x %struct.ecc_key], ptr %5, i64 0, i64 0
  %265 = call i32 @wc_ecc_free(ptr noundef %264)
  %266 = load i32, ptr %3, align 4, !tbaa !14
  call void @llvm.lifetime.end.p0(i64 65, ptr %14) #10
  call void @llvm.lifetime.end.p0(i64 65, ptr %13) #10
  call void @llvm.lifetime.end.p0(i64 65, ptr %12) #10
  call void @llvm.lifetime.end.p0(i64 4, ptr %11) #10
  call void @llvm.lifetime.end.p0(i64 4, ptr %10) #10
  call void @llvm.lifetime.end.p0(i64 4, ptr %9) #10
  call void @llvm.lifetime.end.p0(i64 130, ptr %8) #10
  call void @llvm.lifetime.end.p0(i64 4, ptr %7) #10
  call void @llvm.lifetime.end.p0(i64 32, ptr %6) #10
  call void @llvm.lifetime.end.p0(i64 4208, ptr %5) #10
  call void @llvm.lifetime.end.p0(i64 4, ptr %4) #10
  call void @llvm.lifetime.end.p0(i64 4, ptr %3) #10
  ret i32 %266
}