; Function Attrs: nounwind uwtable
define internal fastcc range(i32 -741602688, 1) i32 @ecc_exp_imp_test(ptr noundef nonnull %0) unnamed_addr #0 {
  %2 = alloca [1 x %struct.ecc_key], align 16
  %3 = alloca [32 x i8], align 16
  %4 = alloca i32, align 4
  %5 = alloca [130 x i8], align 16
  %6 = alloca i32, align 4
  %7 = alloca i32, align 4
  %8 = alloca i32, align 4
  %9 = alloca [65 x i8], align 16
  %10 = alloca [65 x i8], align 16
  %11 = alloca [65 x i8], align 16
  call void @llvm.lifetime.start.p0(i64 4208, ptr nonnull %2) #19
  call void @llvm.lifetime.start.p0(i64 32, ptr nonnull %3) #19
  call void @llvm.lifetime.start.p0(i64 4, ptr nonnull %4) #19
  call void @llvm.lifetime.start.p0(i64 130, ptr nonnull %5) #19
  call void @llvm.lifetime.start.p0(i64 4, ptr nonnull %6) #19
  call void @llvm.lifetime.start.p0(i64 4, ptr nonnull %7) #19
  call void @llvm.lifetime.start.p0(i64 4, ptr nonnull %8) #19
  call void @llvm.lifetime.start.p0(i64 65, ptr nonnull %9) #19
  call void @llvm.memcpy.p0.p0.i64(ptr noundef nonnull align 16 dereferenceable(65) %9, ptr noundef nonnull align 16 dereferenceable(65) @__const.ecc_exp_imp_test.qx, i64 65, i1 false)
  call void @llvm.lifetime.start.p0(i64 65, ptr nonnull %10) #19
  call void @llvm.memcpy.p0.p0.i64(ptr noundef nonnull align 16 dereferenceable(65) %10, ptr noundef nonnull align 16 dereferenceable(65) @__const.ecc_exp_imp_test.qy, i64 65, i1 false)
  call void @llvm.lifetime.start.p0(i64 65, ptr nonnull %11) #19
  call void @llvm.memcpy.p0.p0.i64(ptr noundef nonnull align 16 dereferenceable(65) %11, ptr noundef nonnull align 16 dereferenceable(65) @__const.ecc_exp_imp_test.d, i64 65, i1 false)
  %12 = call i32 @wc_ecc_init_ex(ptr noundef nonnull %2, ptr noundef null, i32 noundef -2) #19
  store i32 32, ptr %4, align 4, !tbaa !22
  %13 = call i32 @wc_ecc_export_private_only(ptr noundef nonnull %0, ptr noundef nonnull %3, ptr noundef nonnull %4) #19
  %.not = icmp eq i32 %13, 0
  br i1 %.not, label %18, label %14

14:                                               ; preds = %1
  %15 = sub nsw i32 0, %13
  %16 = and i32 %15, 2047
  %narrow.neg74 = mul nsw i32 %16, -100000
  %17 = add nsw i32 %narrow.neg74, -536902626
  br label %89

18:                                               ; preds = %1
  store i32 130, ptr %6, align 4, !tbaa !22
  %19 = getelementptr inbounds nuw i8, ptr %0, i64 4
  %20 = load i32, ptr %19, align 4, !tbaa !168
  %21 = getelementptr inbounds nuw i8, ptr %0, i64 32
  %22 = call i32 @wc_ecc_export_point_der(i32 noundef %20, ptr noundef nonnull %21, ptr noundef nonnull %5, ptr noundef nonnull %6) #19
  %.not38 = icmp eq i32 %22, 0
  br i1 %.not38, label %27, label %23

23:                                               ; preds = %18
  %24 = sub nsw i32 0, %22
  %25 = and i32 %24, 2047
  %narrow.neg71 = mul nsw i32 %25, -100000
  %26 = add nsw i32 %narrow.neg71, -536902630
  br label %89

27:                                               ; preds = %18
  %28 = load i32, ptr %4, align 4, !tbaa !22
  %29 = load i32, ptr %6, align 4, !tbaa !22
  %30 = call i32 @wc_ecc_import_private_key(ptr noundef nonnull %3, i32 noundef %28, ptr noundef nonnull %5, i32 noundef %29, ptr noundef nonnull %2) #19
  %.not39 = icmp eq i32 %30, 0
  br i1 %.not39, label %35, label %31

31:                                               ; preds = %27
  %32 = sub nsw i32 0, %30
  %33 = and i32 %32, 2047
  %narrow.neg68 = mul nsw i32 %33, -100000
  %34 = add nsw i32 %narrow.neg68, -536902634
  br label %89

35:                                               ; preds = %27
  %36 = call i32 @wc_ecc_free(ptr noundef nonnull %2) #19
  %37 = call i32 @wc_ecc_init_ex(ptr noundef nonnull %2, ptr noundef null, i32 noundef -2) #19
  %38 = call i32 @wc_ecc_import_raw_ex(ptr noundef nonnull %2, ptr noundef nonnull %9, ptr noundef nonnull %10, ptr noundef nonnull %11, i32 noundef 7) #19
  %.not40 = icmp eq i32 %38, 0
  br i1 %.not40, label %43, label %39

39:                                               ; preds = %35
  %40 = sub nsw i32 0, %38
  %41 = and i32 %40, 2047
  %narrow.neg65 = mul nsw i32 %41, -100000
  %42 = add nsw i32 %narrow.neg65, -536902641
  br label %89

43:                                               ; preds = %35
  %44 = call i32 @wc_ecc_free(ptr noundef nonnull %2) #19
  %45 = call i32 @wc_ecc_init_ex(ptr noundef nonnull %2, ptr noundef null, i32 noundef -2) #19
  %46 = load i32, ptr %19, align 4, !tbaa !168
  %47 = call i32 @wc_ecc_get_curve_id(i32 noundef %46) #19
  %48 = icmp slt i32 %47, 0
  br i1 %48, label %49, label %53

49:                                               ; preds = %43
  %50 = sub nsw i32 0, %47
  %51 = and i32 %50, 2047
  %narrow.neg62 = mul nsw i32 %51, -100000
  %52 = add nsw i32 %narrow.neg62, -536902648
  br label %89

53:                                               ; preds = %43
  %54 = load i32, ptr %4, align 4, !tbaa !22
  %55 = call i32 @wc_ecc_import_private_key_ex(ptr noundef nonnull %3, i32 noundef %54, ptr noundef null, i32 noundef 0, ptr noundef nonnull %2, i32 noundef %47) #19
  %.not41 = icmp eq i32 %55, 0
  br i1 %.not41, label %60, label %56

56:                                               ; preds = %53
  %57 = sub nsw i32 0, %55
  %58 = and i32 %57, 2047
  %narrow.neg59 = mul nsw i32 %58, -100000
  %59 = add nsw i32 %narrow.neg59, -536902656
  br label %89

60:                                               ; preds = %53
  %61 = call i32 @wc_ecc_free(ptr noundef nonnull %2) #19
  %62 = call i32 @wc_ecc_init_ex(ptr noundef nonnull %2, ptr noundef null, i32 noundef -2) #19
  store i32 32, ptr %8, align 4, !tbaa !22
  store i32 32, ptr %7, align 4, !tbaa !22
  %63 = getelementptr inbounds nuw i8, ptr %5, i64 32
  %64 = call i32 @wc_ecc_export_public_raw(ptr noundef nonnull %0, ptr noundef nonnull %5, ptr noundef nonnull %7, ptr noundef nonnull %63, ptr noundef nonnull %8) #19
  %.not42 = icmp eq i32 %64, 0
  br i1 %.not42, label %69, label %65

65:                                               ; preds = %60
  %66 = sub nsw i32 0, %64
  %67 = and i32 %66, 2047
  %narrow.neg56 = mul nsw i32 %67, -100000
  %68 = add nsw i32 %narrow.neg56, -536902665
  br label %89

69:                                               ; preds = %60
  %70 = call i32 @wc_ecc_import_unsigned(ptr noundef nonnull %2, ptr noundef nonnull %5, ptr noundef nonnull %63, ptr noundef null, i32 noundef 7) #19
  %.not43 = icmp eq i32 %70, 0
  br i1 %.not43, label %75, label %71

71:                                               ; preds = %69
  %72 = sub nsw i32 0, %70
  %73 = and i32 %72, 2047
  %narrow.neg53 = mul nsw i32 %73, -100000
  %74 = add nsw i32 %narrow.neg53, -536902671
  br label %89

75:                                               ; preds = %69
  %76 = call i32 @wc_ecc_free(ptr noundef nonnull %2) #19
  %77 = call i32 @wc_ecc_init_ex(ptr noundef nonnull %2, ptr noundef null, i32 noundef -2) #19
  store i32 32, ptr %4, align 4, !tbaa !22
  store i32 32, ptr %8, align 4, !tbaa !22
  store i32 32, ptr %7, align 4, !tbaa !22
  %78 = call i32 @wc_ecc_export_private_raw(ptr noundef nonnull %0, ptr noundef nonnull %5, ptr noundef nonnull %7, ptr noundef nonnull %63, ptr noundef nonnull %8, ptr noundef nonnull %3, ptr noundef nonnull %4) #19
  %.not44 = icmp eq i32 %78, 0
  br i1 %.not44, label %83, label %79

79:                                               ; preds = %75
  %80 = sub nsw i32 0, %78
  %81 = and i32 %80, 2047
  %narrow.neg50 = mul nsw i32 %81, -100000
  %82 = add nsw i32 %narrow.neg50, -536902682
  br label %89

83:                                               ; preds = %75
  %84 = call i32 @wc_ecc_import_unsigned(ptr noundef nonnull %2, ptr noundef nonnull %5, ptr noundef nonnull %63, ptr noundef nonnull %3, i32 noundef 7) #19
  %.not45 = icmp eq i32 %84, 0
  br i1 %.not45, label %89, label %85

85:                                               ; preds = %83
  %86 = sub nsw i32 0, %84
  %87 = and i32 %86, 2047
  %narrow.neg = mul nsw i32 %87, -100000
  %88 = add nsw i32 %narrow.neg, -536902688
  br label %89

89:                                               ; preds = %83, %85, %79, %71, %65, %56, %49, %39, %31, %23, %14
  %.0 = phi i32 [ %17, %14 ], [ %26, %23 ], [ %34, %31 ], [ %42, %39 ], [ %52, %49 ], [ %59, %56 ], [ %68, %65 ], [ %74, %71 ], [ %82, %79 ], [ %88, %85 ], [ 0, %83 ]
  %90 = call i32 @wc_ecc_free(ptr noundef nonnull %2) #19
  call void @llvm.lifetime.end.p0(i64 65, ptr nonnull %11) #19
  call void @llvm.lifetime.end.p0(i64 65, ptr nonnull %10) #19
  call void @llvm.lifetime.end.p0(i64 65, ptr nonnull %9) #19
  call void @llvm.lifetime.end.p0(i64 4, ptr nonnull %8) #19
  call void @llvm.lifetime.end.p0(i64 4, ptr nonnull %7) #19
  call void @llvm.lifetime.end.p0(i64 4, ptr nonnull %6) #19
  call void @llvm.lifetime.end.p0(i64 130, ptr nonnull %5) #19
  call void @llvm.lifetime.end.p0(i64 4, ptr nonnull %4) #19
  call void @llvm.lifetime.end.p0(i64 32, ptr nonnull %3) #19
  call void @llvm.lifetime.end.p0(i64 4208, ptr nonnull %2) #19
  ret i32 %.0
}